; Function Attrs: nounwind uwtable
define range(i32 0, 3) i32 @tls_process_server_rpk(ptr noundef %0, ptr noundef %1) local_unnamed_addr #0 {
  %3 = alloca ptr, align 8
  call void @llvm.lifetime.start.p0(i64 8, ptr nonnull %3) #8
  store ptr null, ptr %3, align 8, !tbaa !190
  %4 = call i32 @tls_process_rpk(ptr noundef %0, ptr noundef %1, ptr noundef nonnull %3) #8
  %.not = icmp eq i32 %4, 0
  br i1 %.not, label %17, label %5

5:                                                ; preds = %2
  %6 = load ptr, ptr %3, align 8, !tbaa !190
  %7 = icmp eq ptr %6, null
  br i1 %7, label %8, label %9

8:                                                ; preds = %5
  call void @ERR_new() #8
  call void @ERR_set_debug(ptr noundef nonnull @.str, i32 noundef 1899, ptr noundef nonnull @__func__.tls_process_server_rpk) #8
  call void (ptr, i32, i32, ptr, ...) @ossl_statem_fatal(ptr noundef %0, i32 noundef 50, i32 noundef 348, ptr noundef null) #8
  br label %17

9:                                                ; preds = %5
  %10 = getelementptr inbounds nuw i8, ptr %0, i64 2304
  %11 = load ptr, ptr %10, align 8, !tbaa !82
  %12 = getelementptr inbounds nuw i8, ptr %11, i64 696
  %13 = load ptr, ptr %12, align 8, !tbaa !169
  call void @EVP_PKEY_free(ptr noundef %13) #8
  %14 = load ptr, ptr %3, align 8, !tbaa !190
  %15 = load ptr, ptr %10, align 8, !tbaa !82
  %16 = getelementptr inbounds nuw i8, ptr %15, i64 696
  store ptr %14, ptr %16, align 8, !tbaa !169
  br label %17

17:                                               ; preds = %2, %9, %8
  %.0 = phi i32 [ 0, %8 ], [ 2, %9 ], [ 0, %2 ]
  call void @llvm.lifetime.end.p0(i64 8, ptr nonnull %3) #8
  ret i32 %.0
}